target datalayout = "e-m:e-p270:32:32-p271:32:32-p272:64:64-i64:64-i128:128-f80:128-n8:16:32:64-S128"
target triple = "x86_64-pc-linux-gnu"

%"class.gmx::AnalysisDataModuleManager::Impl" = type { %"class.std::vector", [3 x i8], i8, i8, i8, i32, i32 }
%"class.std::vector" = type { %"struct.std::_Vector_base" }
%"struct.std::_Vector_base" = type { %"struct.std::_Vector_base<gmx::AnalysisDataModuleManager::Impl::ModuleInfo, std::allocator<gmx::AnalysisDataModuleManager::Impl::ModuleInfo>>::_Vector_impl" }
%"struct.std::_Vector_base<gmx::AnalysisDataModuleManager::Impl::ModuleInfo, std::allocator<gmx::AnalysisDataModuleManager::Impl::ModuleInfo>>::_Vector_impl" = type { %"struct.std::_Vector_base<gmx::AnalysisDataModuleManager::Impl::ModuleInfo, std::allocator<gmx::AnalysisDataModuleManager::Impl::ModuleInfo>>::_Vector_impl_data" }
%"struct.std::_Vector_base<gmx::AnalysisDataModuleManager::Impl::ModuleInfo, std::allocator<gmx::AnalysisDataModuleManager::Impl::ModuleInfo>>::_Vector_impl_data" = type { ptr, ptr, ptr }

; Function Attrs: mustprogress uwtable
define void @_ZNK3gmx25AnalysisDataModuleManager4Impl21checkModulePropertiesERKNS_19IAnalysisDataModuleE(ptr noundef nonnull align 8 dereferenceable(40) %0, ptr noundef nonnull align 8 dereferenceable(8) %1) #2 align 2 {
  %3 = alloca ptr, align 8
  %4 = alloca ptr, align 8
  %5 = alloca i32, align 4
  store ptr %0, ptr %3, align 8, !tbaa !4
  store ptr %1, ptr %4, align 8, !tbaa !38
  %6 = load ptr, ptr %3, align 8
  call void @llvm.lifetime.start.p0(i64 4, ptr %5) #17
  store i32 0, ptr %5, align 4, !tbaa !45
  br label %7

7:                                                ; preds = %20, %2
  %8 = load i32, ptr %5, align 4, !tbaa !45
  %9 = icmp slt i32 %8, 3
  br i1 %9, label %11, label %10

10:                                               ; preds = %7
  call void @llvm.lifetime.end.p0(i64 4, ptr %5) #17
  br label %23

11:                                               ; preds = %7
  %12 = load ptr, ptr %4, align 8, !tbaa !38
  %13 = load i32, ptr %5, align 4, !tbaa !45
  %14 = getelementptr inbounds nuw %"class.gmx::AnalysisDataModuleManager::Impl", ptr %6, i32 0, i32 1
  %15 = load i32, ptr %5, align 4, !tbaa !45
  %16 = sext i32 %15 to i64
  %17 = getelementptr inbounds [3 x i8], ptr %14, i64 0, i64 %16
  %18 = load i8, ptr %17, align 1, !tbaa !42, !range !46, !noundef !47
  %19 = trunc i8 %18 to i1
  call void @_ZN3gmx25AnalysisDataModuleManager4Impl19checkModulePropertyERKNS_19IAnalysisDataModuleENS0_12DataPropertyEb(ptr noundef nonnull align 8 dereferenceable(8) %12, i32 noundef %13, i1 noundef zeroext %19)
  br label %20

20:                                               ; preds = %11
  %21 = load i32, ptr %5, align 4, !tbaa !45
  %22 = add nsw i32 %21, 1
  store i32 %22, ptr %5, align 4, !tbaa !45
  br label %7, !llvm.loop !165

23:                                               ; preds = %10
  ret void
}