; Function Attrs: mustprogress uwtable
define void @_ZNK3gmx25AnalysisDataModuleManager4Impl21checkModulePropertiesERKNS_19IAnalysisDataModuleE(ptr noundef nonnull readonly align 8 captures(none) dereferenceable(40) %0, ptr noundef nonnull align 8 dereferenceable(8) %1) local_unnamed_addr #2 align 2 {
  %3 = getelementptr inbounds nuw i8, ptr %0, i64 24
  br label %5

4:                                                ; preds = %5
  ret void

5:                                                ; preds = %2, %5
  %indvars.iv = phi i64 [ 0, %2 ], [ %indvars.iv.next, %5 ]
  %6 = getelementptr inbounds nuw [3 x i8], ptr %3, i64 0, i64 %indvars.iv
  %7 = load i8, ptr %6, align 1, !tbaa !59, !range !60, !noundef !61
  %8 = trunc nuw i8 %7 to i1
  %9 = trunc nuw nsw i64 %indvars.iv to i32
  tail call void @_ZN3gmx25AnalysisDataModuleManager4Impl19checkModulePropertyERKNS_19IAnalysisDataModuleENS0_12DataPropertyEb(ptr noundef nonnull align 8 dereferenceable(8) %1, i32 noundef %9, i1 noundef zeroext %8)
  %indvars.iv.next = add nuw nsw i64 %indvars.iv, 1
  %exitcond.not = icmp eq i64 %indvars.iv.next, 3
  br i1 %exitcond.not, label %4, label %5, !llvm.loop !62
}